target datalayout = "e-m:e-p270:32:32-p271:32:32-p272:64:64-i64:64-i128:128-f80:128-n8:16:32:64-S128"
target triple = "x86_64-pc-linux-gnu"

%"class.sat::literal" = type { i32 }
%"class.pb::card" = type { %"class.pb::constraint", [0 x %"class.sat::literal"] }
%"class.pb::constraint" = type { ptr, i32, i8, %"class.sat::literal", %"class.sat::literal", i32, i32, i32, i64, i8, i32, i8, i32 }
%class.vector.1 = type { ptr }

; Function Attrs: inlinehint mustprogress nounwind uwtable
define linkonce_odr hidden noundef i32 @_Zco5lbool(i32 noundef %0) #8 comdat {
  %2 = alloca i32, align 4
  store i32 %0, ptr %2, align 4, !tbaa !82
  %3 = load i32, ptr %2, align 4, !tbaa !82
  %4 = sub nsw i32 0, %3
  ret i32 %4
}

; Function Attrs: mustprogress nounwind uwtable
define linkonce_odr hidden noundef nonnull align 4 dereferenceable(4) ptr @_ZNK6vectorI5lboolLb0EjEixEj(ptr noundef nonnull align 8 dereferenceable(8) %0, i32 noundef %1) #6 comdat align 2 {
  %3 = alloca ptr, align 8
  %4 = alloca i32, align 4
  store ptr %0, ptr %3, align 8, !tbaa !89
  store i32 %1, ptr %4, align 4, !tbaa !8
  %5 = load ptr, ptr %3, align 8
  %6 = getelementptr inbounds nuw %class.vector.1, ptr %5, i32 0, i32 0
  %7 = load ptr, ptr %6, align 8, !tbaa !91
  %8 = load i32, ptr %4, align 4, !tbaa !8
  %9 = zext i32 %8 to i64
  %10 = getelementptr inbounds nuw i32, ptr %7, i64 %9
  ret ptr %10
}

; Function Attrs: mustprogress nounwind uwtable
define linkonce_odr hidden noundef i32 @_ZNK3sat7literal3varEv(ptr noundef nonnull align 4 dereferenceable(4) %0) #6 comdat align 2 {
  %2 = alloca ptr, align 8
  store ptr %0, ptr %2, align 8, !tbaa !42
  %3 = load ptr, ptr %2, align 8
  %4 = getelementptr inbounds nuw %"class.sat::literal", ptr %3, i32 0, i32 0
  %5 = load i32, ptr %4, align 4, !tbaa !43
  %6 = lshr i32 %5, 1
  ret i32 %6
}

; Function Attrs: mustprogress nounwind uwtable
define linkonce_odr hidden noundef zeroext i1 @_ZNK3sat7literal4signEv(ptr noundef nonnull align 4 dereferenceable(4) %0) #6 comdat align 2 {
  %2 = alloca ptr, align 8
  store ptr %0, ptr %2, align 8, !tbaa !42
  %3 = load ptr, ptr %2, align 8
  %4 = getelementptr inbounds nuw %"class.sat::literal", ptr %3, i32 0, i32 0
  %5 = load i32, ptr %4, align 4, !tbaa !43
  %6 = zext i32 %5 to i64
  %7 = and i64 %6, 1
  %8 = icmp ne i64 %7, 0
  ret i1 %8
}

; Function Attrs: mustprogress nounwind uwtable
define linkonce_odr hidden noundef i32 @_ZNK2pb10constraint1kEv(ptr noundef nonnull align 8 dereferenceable(64) %0) #6 comdat align 2 {
  %2 = alloca ptr, align 8
  store ptr %0, ptr %2, align 8, !tbaa !22
  %3 = load ptr, ptr %2, align 8
  %4 = getelementptr inbounds nuw %"class.pb::constraint", ptr %3, i32 0, i32 12
  %5 = load i32, ptr %4, align 4, !tbaa !40
  ret i32 %5
}

; Function Attrs: inlinehint mustprogress uwtable
define linkonce_odr hidden noundef i32 @_ZN2pb5valueERK7svectorI5lbooljEN3sat7literalE(ptr noundef nonnull align 8 dereferenceable(8) %0, i32 %1) #9 comdat {
  %3 = alloca %"class.sat::literal", align 4
  %4 = alloca ptr, align 8
  %5 = getelementptr inbounds nuw %"class.sat::literal", ptr %3, i32 0, i32 0
  store i32 %1, ptr %5, align 4
  store ptr %0, ptr %4, align 8, !tbaa !80
  %6 = call noundef zeroext i1 @_ZNK3sat7literal4signEv(ptr noundef nonnull align 4 dereferenceable(4) %3)
  br i1 %6, label %7, label %13

7:                                                ; preds = %2
  %8 = load ptr, ptr %4, align 8, !tbaa !80
  %9 = call noundef i32 @_ZNK3sat7literal3varEv(ptr noundef nonnull align 4 dereferenceable(4) %3)
  %10 = call noundef nonnull align 4 dereferenceable(4) ptr @_ZNK6vectorI5lboolLb0EjEixEj(ptr noundef nonnull align 8 dereferenceable(8) %8, i32 noundef %9)
  %11 = load i32, ptr %10, align 4, !tbaa !82
  %12 = call noundef i32 @_Zco5lbool(i32 noundef %11)
  br label %18

13:                                               ; preds = %2
  %14 = load ptr, ptr %4, align 8, !tbaa !80
  %15 = call noundef i32 @_ZNK3sat7literal3varEv(ptr noundef nonnull align 4 dereferenceable(4) %3)
  %16 = call noundef nonnull align 4 dereferenceable(4) ptr @_ZNK6vectorI5lboolLb0EjEixEj(ptr noundef nonnull align 8 dereferenceable(8) %14, i32 noundef %15)
  %17 = load i32, ptr %16, align 4, !tbaa !82
  br label %18

18:                                               ; preds = %13, %7
  %19 = phi i32 [ %12, %7 ], [ %17, %13 ]
  ret i32 %19
}

; Function Attrs: mustprogress nounwind uwtable
define linkonce_odr hidden noundef ptr @_ZNK2pb4card3endEv(ptr noundef nonnull align 8 dereferenceable(64) %0) #6 comdat align 2 {
  %2 = alloca ptr, align 8
  store ptr %0, ptr %2, align 8, !tbaa !3
  %3 = load ptr, ptr %2, align 8
  %4 = getelementptr inbounds nuw %"class.pb::card", ptr %3, i32 0, i32 1
  %5 = getelementptr inbounds [0 x %"class.sat::literal"], ptr %4, i64 0, i64 0
  %6 = getelementptr inbounds nuw %"class.pb::constraint", ptr %3, i32 0, i32 7
  %7 = load i32, ptr %6, align 8, !tbaa !35
  %8 = zext i32 %7 to i64
  %9 = getelementptr inbounds nuw %"class.sat::literal", ptr %5, i64 %8
  ret ptr %9
}

; Function Attrs: mustprogress nounwind uwtable
define linkonce_odr hidden noundef ptr @_ZNK2pb4card5beginEv(ptr noundef nonnull align 8 dereferenceable(64) %0) #6 comdat align 2 {
  %2 = alloca ptr, align 8
  store ptr %0, ptr %2, align 8, !tbaa !3
  %3 = load ptr, ptr %2, align 8
  %4 = getelementptr inbounds nuw %"class.pb::card", ptr %3, i32 0, i32 1
  %5 = getelementptr inbounds [0 x %"class.sat::literal"], ptr %4, i64 0, i64 0
  ret ptr %5
}

; Function Attrs: mustprogress uwtable
define hidden noundef i32 @_ZNK2pb4card4evalERK7svectorI5lbooljE(ptr noundef nonnull align 8 dereferenceable(64) %0, ptr noundef nonnull align 8 dereferenceable(8) %1) unnamed_addr #4 align 2 {
  %3 = alloca i32, align 4
  %4 = alloca ptr, align 8
  %5 = alloca ptr, align 8
  %6 = alloca i32, align 4
  %7 = alloca i32, align 4
  %8 = alloca ptr, align 8
  %9 = alloca ptr, align 8
  %10 = alloca ptr, align 8
  %11 = alloca %"class.sat::literal", align 4
  %12 = alloca %"class.sat::literal", align 4
  %13 = alloca i32, align 4
  store ptr %0, ptr %4, align 8, !tbaa !3
  store ptr %1, ptr %5, align 8, !tbaa !80
  %14 = load ptr, ptr %4, align 8
  call void @llvm.lifetime.start.p0(i64 4, ptr %6) #3
  store i32 0, ptr %6, align 4, !tbaa !8
  call void @llvm.lifetime.start.p0(i64 4, ptr %7) #3
  store i32 0, ptr %7, align 4, !tbaa !8
  call void @llvm.lifetime.start.p0(i64 8, ptr %8) #3
  store ptr %14, ptr %8, align 8, !tbaa !3
  call void @llvm.lifetime.start.p0(i64 8, ptr %9) #3
  %15 = load ptr, ptr %8, align 8, !tbaa !3
  %16 = call noundef ptr @_ZNK2pb4card5beginEv(ptr noundef nonnull align 8 dereferenceable(64) %15)
  store ptr %16, ptr %9, align 8, !tbaa !42
  call void @llvm.lifetime.start.p0(i64 8, ptr %10) #3
  %17 = load ptr, ptr %8, align 8, !tbaa !3
  %18 = call noundef ptr @_ZNK2pb4card3endEv(ptr noundef nonnull align 8 dereferenceable(64) %17)
  store ptr %18, ptr %10, align 8, !tbaa !42
  br label %19

19:                                               ; preds = %38, %2
  %20 = load ptr, ptr %9, align 8, !tbaa !42
  %21 = load ptr, ptr %10, align 8, !tbaa !42
  %22 = icmp ne ptr %20, %21
  br i1 %22, label %24, label %23

23:                                               ; preds = %19
  call void @llvm.lifetime.end.p0(i64 8, ptr %10) #3
  call void @llvm.lifetime.end.p0(i64 8, ptr %9) #3
  call void @llvm.lifetime.end.p0(i64 8, ptr %8) #3
  br label %41

24:                                               ; preds = %19
  call void @llvm.lifetime.start.p0(i64 4, ptr %11) #3
  %25 = load ptr, ptr %9, align 8, !tbaa !42
  call void @llvm.memcpy.p0.p0.i64(ptr align 4 %11, ptr align 4 %25, i64 4, i1 false), !tbaa.struct !12
  %26 = load ptr, ptr %5, align 8, !tbaa !80
  call void @llvm.memcpy.p0.p0.i64(ptr align 4 %12, ptr align 4 %11, i64 4, i1 false), !tbaa.struct !12
  %27 = getelementptr inbounds nuw %"class.sat::literal", ptr %12, i32 0, i32 0
  %28 = load i32, ptr %27, align 4
  %29 = call noundef i32 @_ZN2pb5valueERK7svectorI5lbooljEN3sat7literalE(ptr noundef nonnull align 8 dereferenceable(8) %26, i32 %28)
  switch i32 %29, label %36 [
    i32 1, label %30
    i32 0, label %33
  ]

30:                                               ; preds = %24
  %31 = load i32, ptr %6, align 4, !tbaa !8
  %32 = add i32 %31, 1
  store i32 %32, ptr %6, align 4, !tbaa !8
  br label %37

33:                                               ; preds = %24
  %34 = load i32, ptr %7, align 4, !tbaa !8
  %35 = add i32 %34, 1
  store i32 %35, ptr %7, align 4, !tbaa !8
  br label %37

36:                                               ; preds = %24
  br label %37

37:                                               ; preds = %36, %33, %30
  call void @llvm.lifetime.end.p0(i64 4, ptr %11) #3
  br label %38

38:                                               ; preds = %37
  %39 = load ptr, ptr %9, align 8, !tbaa !42
  %40 = getelementptr inbounds nuw %"class.sat::literal", ptr %39, i32 1
  store ptr %40, ptr %9, align 8, !tbaa !42
  br label %19

41:                                               ; preds = %23
  %42 = load i32, ptr %6, align 4, !tbaa !8
  %43 = load i32, ptr %7, align 4, !tbaa !8
  %44 = add i32 %42, %43
  %45 = call noundef i32 @_ZNK2pb10constraint1kEv(ptr noundef nonnull align 8 dereferenceable(64) %14)
  %46 = icmp ult i32 %44, %45
  br i1 %46, label %47, label %48

47:                                               ; preds = %41
  store i32 -1, ptr %3, align 4
  store i32 1, ptr %13, align 4
  br label %54

48:                                               ; preds = %41
  %49 = load i32, ptr %6, align 4, !tbaa !8
  %50 = call noundef i32 @_ZNK2pb10constraint1kEv(ptr noundef nonnull align 8 dereferenceable(64) %14)
  %51 = icmp uge i32 %49, %50
  br i1 %51, label %52, label %53

52:                                               ; preds = %48
  store i32 1, ptr %3, align 4
  store i32 1, ptr %13, align 4
  br label %54

53:                                               ; preds = %48
  store i32 0, ptr %3, align 4
  store i32 1, ptr %13, align 4
  br label %54

54:                                               ; preds = %53, %52, %47
  call void @llvm.lifetime.end.p0(i64 4, ptr %7) #3
  call void @llvm.lifetime.end.p0(i64 4, ptr %6) #3
  %55 = load i32, ptr %3, align 4
  ret i32 %55
}